target datalayout = "e-m:e-p270:32:32-p271:32:32-p272:64:64-i64:64-i128:128-f80:128-n8:16:32:64-S128"
target triple = "x86_64-pc-linux-gnu"

%"struct.absl::time_internal::cctz::detail::fields" = type <{ i64, i8, i8, i8, i8, i8, [3 x i8] }>
%"class.std::basic_string_view" = type { i64, ptr }
%"class.absl::time_internal::cctz::detail::civil_time.0" = type { %"struct.absl::time_internal::cctz::detail::fields" }
%"class.absl::time_internal::cctz::detail::civil_time.4" = type { %"struct.absl::time_internal::cctz::detail::fields" }
%"struct.absl::time_internal::minute_tag" = type { [2 x i8] }

; Function Attrs: mustprogress nounwind uwtable
define linkonce_odr dso_local { i64, i64 } @_ZN4absl13time_internal4cctz6detail5alignENS2_10minute_tagENS2_6fieldsE(i64 %0, i64 %1) #1 comdat personality ptr @__gxx_personality_v0 {
  %3 = alloca %"struct.absl::time_internal::cctz::detail::fields", align 8
  %4 = alloca %"struct.absl::time_internal::cctz::detail::fields", align 8
  %5 = getelementptr inbounds nuw { i64, i64 }, ptr %4, i32 0, i32 0
  store i64 %0, ptr %5, align 8
  %6 = getelementptr inbounds nuw { i64, i64 }, ptr %4, i32 0, i32 1
  store i64 %1, ptr %6, align 8
  %7 = getelementptr inbounds nuw %"struct.absl::time_internal::cctz::detail::fields", ptr %4, i32 0, i32 0
  %8 = load i64, ptr %7, align 8, !tbaa !60
  %9 = getelementptr inbounds nuw %"struct.absl::time_internal::cctz::detail::fields", ptr %4, i32 0, i32 1
  %10 = load i8, ptr %9, align 8, !tbaa !61
  %11 = getelementptr inbounds nuw %"struct.absl::time_internal::cctz::detail::fields", ptr %4, i32 0, i32 2
  %12 = load i8, ptr %11, align 1, !tbaa !62
  %13 = getelementptr inbounds nuw %"struct.absl::time_internal::cctz::detail::fields", ptr %4, i32 0, i32 3
  %14 = load i8, ptr %13, align 2, !tbaa !63
  %15 = getelementptr inbounds nuw %"struct.absl::time_internal::cctz::detail::fields", ptr %4, i32 0, i32 4
  %16 = load i8, ptr %15, align 1, !tbaa !64
  invoke void @_ZN4absl13time_internal4cctz6detail6fieldsC2Elaaaaa(ptr noundef nonnull align 8 dereferenceable(13) %3, i64 noundef %8, i8 noundef signext %10, i8 noundef signext %12, i8 noundef signext %14, i8 noundef signext %16, i8 noundef signext 0)
          to label %17 unwind label %19

17:                                               ; preds = %2
  %18 = load { i64, i64 }, ptr %3, align 8
  ret { i64, i64 } %18

19:                                               ; preds = %2
  %20 = landingpad { ptr, i32 }
          catch ptr null
  %21 = extractvalue { ptr, i32 } %20, 0
  call void @__clang_call_terminate(ptr %21) #18
  unreachable
}

; Function Attrs: mustprogress nounwind uwtable
define linkonce_odr dso_local void @_ZN4absl13time_internal4cctz6detail10civil_timeINS0_10minute_tagEEC2ENS2_6fieldsE(ptr noundef nonnull align 8 dereferenceable(16) %0, i64 %1, i64 %2) unnamed_addr #1 comdat align 2 {
  %4 = alloca %"struct.absl::time_internal::cctz::detail::fields", align 8
  %5 = alloca ptr, align 8
  %6 = alloca %"struct.absl::time_internal::minute_tag", align 1
  %7 = alloca %"struct.absl::time_internal::cctz::detail::fields", align 8
  %8 = alloca { i64, i64 }, align 8
  %9 = getelementptr inbounds nuw { i64, i64 }, ptr %4, i32 0, i32 0
  store i64 %1, ptr %9, align 8
  %10 = getelementptr inbounds nuw { i64, i64 }, ptr %4, i32 0, i32 1
  store i64 %2, ptr %10, align 8
  store ptr %0, ptr %5, align 8, !tbaa !24
  %11 = load ptr, ptr %5, align 8
  call void @llvm.lifetime.start.p0(i64 2, ptr %6) #15
  call void @llvm.memcpy.p0.p0.i64(ptr align 8 %7, ptr align 8 %4, i64 16, i1 false), !tbaa.struct !4
  %12 = getelementptr inbounds nuw { i64, i64 }, ptr %7, i32 0, i32 0
  %13 = load i64, ptr %12, align 8
  %14 = getelementptr inbounds nuw { i64, i64 }, ptr %7, i32 0, i32 1
  %15 = load i64, ptr %14, align 8
  %16 = call { i64, i64 } @_ZN4absl13time_internal4cctz6detail5alignENS2_10minute_tagENS2_6fieldsE(i64 %13, i64 %15) #15
  store { i64, i64 } %16, ptr %8, align 8
  call void @llvm.memcpy.p0.p0.i64(ptr align 8 %11, ptr align 8 %8, i64 13, i1 false)
  ret void
}

; Function Attrs: noinline noreturn nounwind uwtable
define linkonce_odr hidden void @__clang_call_terminate(ptr noundef %0) #9 comdat {
  %2 = call ptr @__cxa_begin_catch(ptr %0) #15
  call void @_ZSt9terminatev() #18
  unreachable
}

; Function Attrs: mustprogress nounwind uwtable
define linkonce_odr dso_local void @_ZN4absl13time_internal4cctz6detail6fieldsC2Elaaaaa(ptr noundef nonnull align 8 dereferenceable(13) %0, i64 noundef %1, i8 noundef signext %2, i8 noundef signext %3, i8 noundef signext %4, i8 noundef signext %5, i8 noundef signext %6) unnamed_addr #1 comdat align 2 {
  %8 = alloca ptr, align 8
  %9 = alloca i64, align 8
  %10 = alloca i8, align 1
  %11 = alloca i8, align 1
  %12 = alloca i8, align 1
  %13 = alloca i8, align 1
  %14 = alloca i8, align 1
  store ptr %0, ptr %8, align 8, !tbaa !58
  store i64 %1, ptr %9, align 8, !tbaa !5
  store i8 %2, ptr %10, align 1, !tbaa !9
  store i8 %3, ptr %11, align 1, !tbaa !9
  store i8 %4, ptr %12, align 1, !tbaa !9
  store i8 %5, ptr %13, align 1, !tbaa !9
  store i8 %6, ptr %14, align 1, !tbaa !9
  %15 = load ptr, ptr %8, align 8
  %16 = getelementptr inbounds nuw %"struct.absl::time_internal::cctz::detail::fields", ptr %15, i32 0, i32 0
  %17 = load i64, ptr %9, align 8, !tbaa !5
  store i64 %17, ptr %16, align 8, !tbaa !60
  %18 = getelementptr inbounds nuw %"struct.absl::time_internal::cctz::detail::fields", ptr %15, i32 0, i32 1
  %19 = load i8, ptr %10, align 1, !tbaa !9
  store i8 %19, ptr %18, align 8, !tbaa !61
  %20 = getelementptr inbounds nuw %"struct.absl::time_internal::cctz::detail::fields", ptr %15, i32 0, i32 2
  %21 = load i8, ptr %11, align 1, !tbaa !9
  store i8 %21, ptr %20, align 1, !tbaa !62
  %22 = getelementptr inbounds nuw %"struct.absl::time_internal::cctz::detail::fields", ptr %15, i32 0, i32 3
  %23 = load i8, ptr %12, align 1, !tbaa !9
  store i8 %23, ptr %22, align 2, !tbaa !63
  %24 = getelementptr inbounds nuw %"struct.absl::time_internal::cctz::detail::fields", ptr %15, i32 0, i32 4
  %25 = load i8, ptr %13, align 1, !tbaa !9
  store i8 %25, ptr %24, align 1, !tbaa !64
  %26 = getelementptr inbounds nuw %"struct.absl::time_internal::cctz::detail::fields", ptr %15, i32 0, i32 5
  %27 = load i8, ptr %14, align 1, !tbaa !9
  store i8 %27, ptr %26, align 4, !tbaa !65
  ret void
}

; Function Attrs: mustprogress nounwind uwtable
define linkonce_odr dso_local void @_ZN4absl13time_internal4cctz6detail10civil_timeINS0_10minute_tagEEC2INS0_8year_tagEEERKNS3_IT_EEPNSt9enable_ifIXsr3std10is_base_ofIS4_S8_EE5valueEvE4typeE(ptr noundef nonnull align 8 dereferenceable(16) %0, ptr noundef nonnull align 8 dereferenceable(16) %1, ptr noundef %2) unnamed_addr #1 comdat align 2 {
  %4 = alloca ptr, align 8
  %5 = alloca ptr, align 8
  %6 = alloca ptr, align 8
  %7 = alloca %"struct.absl::time_internal::cctz::detail::fields", align 8
  store ptr %0, ptr %4, align 8, !tbaa !24
  store ptr %1, ptr %5, align 8, !tbaa !33
  store ptr %2, ptr %6, align 8, !tbaa !26
  %8 = load ptr, ptr %4, align 8
  %9 = load ptr, ptr %5, align 8, !tbaa !33
  %10 = getelementptr inbounds nuw %"class.absl::time_internal::cctz::detail::civil_time.4", ptr %9, i32 0, i32 0
  call void @llvm.memcpy.p0.p0.i64(ptr align 8 %7, ptr align 8 %10, i64 16, i1 false), !tbaa.struct !4
  %11 = getelementptr inbounds nuw { i64, i64 }, ptr %7, i32 0, i32 0
  %12 = load i64, ptr %11, align 8
  %13 = getelementptr inbounds nuw { i64, i64 }, ptr %7, i32 0, i32 1
  %14 = load i64, ptr %13, align 8
  call void @_ZN4absl13time_internal4cctz6detail10civil_timeINS0_10minute_tagEEC2ENS2_6fieldsE(ptr noundef nonnull align 8 dereferenceable(16) %8, i64 %12, i64 %14) #15
  ret void
}

; Function Attrs: mustprogress nounwind uwtable
define linkonce_odr dso_local void @_ZN4absl13time_internal4cctz6detail10civil_timeINS0_8year_tagEEC2Ev(ptr noundef nonnull align 8 dereferenceable(16) %0) unnamed_addr #1 comdat align 2 personality ptr @__gxx_personality_v0 {
  %2 = alloca ptr, align 8
  store ptr %0, ptr %2, align 8, !tbaa !33
  %3 = load ptr, ptr %2, align 8
  %4 = getelementptr inbounds nuw %"class.absl::time_internal::cctz::detail::civil_time.4", ptr %3, i32 0, i32 0
  invoke void @_ZN4absl13time_internal4cctz6detail6fieldsC2Elaaaaa(ptr noundef nonnull align 8 dereferenceable(13) %4, i64 noundef 1970, i8 noundef signext 1, i8 noundef signext 1, i8 noundef signext 0, i8 noundef signext 0, i8 noundef signext 0)
          to label %5 unwind label %6

5:                                                ; preds = %1
  ret void

6:                                                ; preds = %1
  %7 = landingpad { ptr, i32 }
          catch ptr null
  %8 = extractvalue { ptr, i32 } %7, 0
  call void @__clang_call_terminate(ptr %8) #18
  unreachable
}

; Function Attrs: mustprogress uwtable
define internal noundef zeroext i1 @_ZN4absl12_GLOBAL__N_17ParseAsINS_13time_internal4cctz6detail10civil_timeINS2_8year_tagEEENS5_INS2_10minute_tagEEEEEbSt17basic_string_viewIcSt11char_traitsIcEEPT0_(i64 %0, ptr %1, ptr noundef %2) #0 {
  %4 = alloca i1, align 1
  %5 = alloca %"class.std::basic_string_view", align 8
  %6 = alloca ptr, align 8
  %7 = alloca %"class.absl::time_internal::cctz::detail::civil_time.4", align 8
  %8 = alloca %"class.std::basic_string_view", align 8
  %9 = alloca %"class.absl::time_internal::cctz::detail::civil_time.0", align 8
  %10 = alloca i32, align 4
  %11 = getelementptr inbounds nuw { i64, ptr }, ptr %5, i32 0, i32 0
  store i64 %0, ptr %11, align 8
  %12 = getelementptr inbounds nuw { i64, ptr }, ptr %5, i32 0, i32 1
  store ptr %1, ptr %12, align 8
  store ptr %2, ptr %6, align 8, !tbaa !24
  call void @llvm.lifetime.start.p0(i64 16, ptr %7) #15
  call void @_ZN4absl13time_internal4cctz6detail10civil_timeINS0_8year_tagEEC2Ev(ptr noundef nonnull align 8 dereferenceable(16) %7) #15
  call void @llvm.memcpy.p0.p0.i64(ptr align 8 %8, ptr align 8 %5, i64 16, i1 false), !tbaa.struct !10
  %13 = getelementptr inbounds nuw { i64, ptr }, ptr %8, i32 0, i32 0
  %14 = load i64, ptr %13, align 8
  %15 = getelementptr inbounds nuw { i64, ptr }, ptr %8, i32 0, i32 1
  %16 = load ptr, ptr %15, align 8
  %17 = call noundef zeroext i1 @_ZN4absl14ParseCivilTimeESt17basic_string_viewIcSt11char_traitsIcEEPNS_13time_internal4cctz6detail10civil_timeINS4_8year_tagEEE(i64 %14, ptr %16, ptr noundef %7)
  br i1 %17, label %18, label %20

18:                                               ; preds = %3
  call void @llvm.lifetime.start.p0(i64 16, ptr %9) #15
  call void @_ZN4absl13time_internal4cctz6detail10civil_timeINS0_10minute_tagEEC2INS0_8year_tagEEERKNS3_IT_EEPNSt9enable_ifIXsr3std10is_base_ofIS4_S8_EE5valueEvE4typeE(ptr noundef nonnull align 8 dereferenceable(16) %9, ptr noundef nonnull align 8 dereferenceable(16) %7, ptr noundef null) #15
  %19 = load ptr, ptr %6, align 8, !tbaa !24
  call void @llvm.memcpy.p0.p0.i64(ptr align 8 %19, ptr align 8 %9, i64 16, i1 false), !tbaa.struct !4
  call void @llvm.lifetime.end.p0(i64 16, ptr %9) #15
  store i1 true, ptr %4, align 1
  store i32 1, ptr %10, align 4
  br label %21

20:                                               ; preds = %3
  store i1 false, ptr %4, align 1
  store i32 1, ptr %10, align 4
  br label %21

21:                                               ; preds = %20, %18
  call void @llvm.lifetime.end.p0(i64 16, ptr %7) #15
  %22 = load i1, ptr %4, align 1
  ret i1 %22
}