; Function Attrs: mustprogress uwtable
define internal fastcc noundef zeroext i1 @_ZN4absl12_GLOBAL__N_17ParseAsINS_13time_internal4cctz6detail10civil_timeINS2_8year_tagEEENS5_INS2_10minute_tagEEEEEbSt17basic_string_viewIcSt11char_traitsIcEEPT0_(i64 %0, ptr captures(address_is_null) %1, ptr noundef writeonly captures(none) %2) unnamed_addr #0 personality ptr @__gxx_personality_v0 {
  %4 = alloca %"class.absl::time_internal::cctz::detail::civil_time.4", align 8
  call void @llvm.lifetime.start.p0(i64 16, ptr nonnull %4) #12
  store i64 1970, ptr %4, align 8, !tbaa !31
  %5 = getelementptr inbounds nuw i8, ptr %4, i64 8
  store i8 1, ptr %5, align 8, !tbaa !33
  %6 = getelementptr inbounds nuw i8, ptr %4, i64 9
  store i8 1, ptr %6, align 1, !tbaa !34
  %7 = getelementptr inbounds nuw i8, ptr %4, i64 10
  store i8 0, ptr %7, align 2, !tbaa !35
  %8 = getelementptr inbounds nuw i8, ptr %4, i64 11
  store i8 0, ptr %8, align 1, !tbaa !36
  %9 = getelementptr inbounds nuw i8, ptr %4, i64 12
  store i8 0, ptr %9, align 4, !tbaa !37
  %10 = call noundef zeroext i1 @_ZN4absl14ParseCivilTimeESt17basic_string_viewIcSt11char_traitsIcEEPNS_13time_internal4cctz6detail10civil_timeINS4_8year_tagEEE(i64 %0, ptr %1, ptr noundef nonnull %4)
  br i1 %10, label %11, label %12

11:                                               ; preds = %3
  %.sroa.0.0.copyload.i = load i64, ptr %4, align 8, !tbaa !25
  %.sroa.2.0.copyload.i = load i64, ptr %5, align 8
  %.sroa.2.8.insert.insert.i.i.i = and i64 %.sroa.2.0.copyload.i, 4294967295
  %.sroa.2.0.extract.trunc.i.i = trunc nuw nsw i64 %.sroa.2.8.insert.insert.i.i.i to i40
  store i64 %.sroa.0.0.copyload.i, ptr %2, align 8, !tbaa !25
  %.sroa.4.0..sroa_idx = getelementptr inbounds nuw i8, ptr %2, i64 8
  store i40 %.sroa.2.0.extract.trunc.i.i, ptr %.sroa.4.0..sroa_idx, align 8
  br label %12

12:                                               ; preds = %3, %11
  call void @llvm.lifetime.end.p0(i64 16, ptr nonnull %4) #12
  ret i1 %10
}